target datalayout = "e-m:e-p270:32:32-p271:32:32-p272:64:64-i64:64-i128:128-f80:128-n8:16:32:64-S128"
target triple = "x86_64-pc-linux-gnu"

%"class.gmx::FlagsTemplate" = type { i64 }
%"class.gmx::GromacsException" = type { %"class.std::exception", %"class.std::shared_ptr" }
%"class.std::exception" = type { ptr }
%"class.std::shared_ptr" = type { %"class.std::__shared_ptr" }
%"class.std::__shared_ptr" = type { ptr, %"class.std::__shared_count" }
%"class.std::__shared_count" = type { ptr }
%"class.gmx::ExceptionInitializer" = type { %"class.std::__cxx11::basic_string", %"class.std::vector" }
%"class.std::__cxx11::basic_string" = type { %"struct.std::__cxx11::basic_string<char>::_Alloc_hider", i64, %union.anon }
%"struct.std::__cxx11::basic_string<char>::_Alloc_hider" = type { ptr }
%union.anon = type { i64, [8 x i8] }
%"class.std::vector" = type { %"struct.std::_Vector_base" }
%"struct.std::_Vector_base" = type { %"struct.std::_Vector_base<std::__exception_ptr::exception_ptr, std::allocator<std::__exception_ptr::exception_ptr>>::_Vector_impl" }
%"struct.std::_Vector_base<std::__exception_ptr::exception_ptr, std::allocator<std::__exception_ptr::exception_ptr>>::_Vector_impl" = type { %"struct.std::_Vector_base<std::__exception_ptr::exception_ptr, std::allocator<std::__exception_ptr::exception_ptr>>::_Vector_impl_data" }
%"struct.std::_Vector_base<std::__exception_ptr::exception_ptr, std::allocator<std::__exception_ptr::exception_ptr>>::_Vector_impl_data" = type { ptr, ptr, ptr }
%"class.gmx::ExceptionInfo" = type { %"class.gmx::internal::IExceptionInfo", %"struct.gmx::ThrowLocation" }
%"class.gmx::internal::IExceptionInfo" = type { ptr }
%"struct.gmx::ThrowLocation" = type <{ ptr, ptr, i32, [4 x i8] }>
%"class.gmx::AbstractOptionStorage" = type <{ ptr, %"class.std::__cxx11::basic_string", %"class.std::__cxx11::basic_string", %"class.gmx::FlagsTemplate", ptr, i32, i32, i8, i8, [6 x i8] }>
%"class.gmx::InvalidInputError" = type { %"class.gmx::UserInputError" }
%"class.gmx::UserInputError" = type { %"class.gmx::GromacsException" }
%class.anon.9 = type { i8 }

@.str.1 = private unnamed_addr constant [132 x i8] c"generated/home/dtcxzyw/WorkSpace/Projects/compilers/llvm-opt-benchmark/bench/gromacs/gromacs/src/gromacs/options/abstractoption.cpp\00", align 1
@_ZTIN3gmx17InvalidInputErrorE = external constant ptr
@.str.3 = private unnamed_addr constant [32 x i8] c"Option is required, but not set\00", align 1
@__PRETTY_FUNCTION__._ZN3gmx21AbstractOptionStorage6finishEv = private unnamed_addr constant [42 x i8] c"void gmx::AbstractOptionStorage::finish()\00", align 1
@.str.7 = private unnamed_addr constant [9 x i8] c"!bInSet_\00", align 1
@.str.8 = private unnamed_addr constant [23 x i8] c"finishSet() not called\00", align 1
@_ZTVN3gmx17InvalidInputErrorE = external unnamed_addr constant { [6 x ptr] }, align 8
@_ZTVN3gmx14UserInputErrorE = linkonce_odr unnamed_addr constant { [6 x ptr] } { [6 x ptr] [ptr null, ptr @_ZTIN3gmx14UserInputErrorE, ptr @_ZN3gmx16GromacsExceptionD2Ev, ptr @_ZN3gmx14UserInputErrorD0Ev, ptr @_ZNK3gmx16GromacsException4whatEv, ptr @__cxa_pure_virtual] }, comdat, align 8
@"__PRETTY_FUNCTION__._ZZN3gmx21AbstractOptionStorage6finishEvENK3$_0clEv" = private unnamed_addr constant [81 x i8] c"auto gmx::AbstractOptionStorage::finish()::(anonymous class)::operator()() const\00", align 1
@_ZTVN3gmx8internal14IExceptionInfoE = available_externally unnamed_addr constant { [4 x ptr] } { [4 x ptr] [ptr null, ptr @_ZTIN3gmx8internal14IExceptionInfoE, ptr @_ZN3gmx8internal14IExceptionInfoD1Ev, ptr @_ZN3gmx8internal14IExceptionInfoD0Ev] }, align 8

; Function Attrs: mustprogress nounwind uwtable
define linkonce_odr void @_ZN3gmx8internal14IExceptionInfoC2Ev(ptr noundef nonnull align 8 dereferenceable(8) %0) unnamed_addr #1 comdat align 2 {
  %2 = alloca ptr, align 8
  store ptr %0, ptr %2, align 8, !tbaa !133
  %3 = load ptr, ptr %2, align 8
  store ptr getelementptr inbounds inrange(-16, 16) ({ [4 x ptr] }, ptr @_ZTVN3gmx8internal14IExceptionInfoE, i32 0, i32 0, i32 2), ptr %3, align 8, !tbaa !10
  ret void
}

; Function Attrs: mustprogress uwtable
define linkonce_odr void @_ZN3gmx14UserInputErrorC2ERKNS_20ExceptionInitializerE(ptr noundef nonnull align 8 dereferenceable(24) %0, ptr noundef nonnull align 8 dereferenceable(56) %1) unnamed_addr #0 comdat align 2 {
  %3 = alloca ptr, align 8
  %4 = alloca ptr, align 8
  store ptr %0, ptr %3, align 8, !tbaa !127
  store ptr %1, ptr %4, align 8, !tbaa !44
  %5 = load ptr, ptr %3, align 8
  %6 = load ptr, ptr %4, align 8, !tbaa !44
  call void @_ZN3gmx16GromacsExceptionC2ERKNS_20ExceptionInitializerE(ptr noundef nonnull align 8 dereferenceable(24) %5, ptr noundef nonnull align 8 dereferenceable(56) %6)
  store ptr getelementptr inbounds inrange(-16, 32) ({ [6 x ptr] }, ptr @_ZTVN3gmx14UserInputErrorE, i32 0, i32 0, i32 2), ptr %5, align 8, !tbaa !10
  ret void
}

; Function Attrs: mustprogress nounwind uwtable
define linkonce_odr noundef zeroext i1 @_ZNK3gmx13FlagsTemplateINS_10OptionFlagEE4testES1_(ptr noundef nonnull align 8 dereferenceable(8) %0, i64 noundef %1) #1 comdat align 2 {
  %3 = alloca ptr, align 8
  %4 = alloca i64, align 8
  store ptr %0, ptr %3, align 8, !tbaa !35
  store i64 %1, ptr %4, align 8, !tbaa !38
  %5 = load ptr, ptr %3, align 8
  %6 = getelementptr inbounds nuw %"class.gmx::FlagsTemplate", ptr %5, i32 0, i32 0
  %7 = load i64, ptr %6, align 8, !tbaa !37
  %8 = load i64, ptr %4, align 8, !tbaa !38
  %9 = and i64 %7, %8
  %10 = icmp ne i64 %9, 0
  ret i1 %10
}

; Function Attrs: mustprogress nounwind uwtable
define linkonce_odr void @_ZN3gmx13ExceptionInfoINS_22ExceptionInfoLocation_ENS_13ThrowLocationEEC2ERKS2_(ptr noundef nonnull align 8 dereferenceable(32) %0, ptr noundef nonnull align 8 dereferenceable(20) %1) unnamed_addr #1 comdat align 2 {
  %3 = alloca ptr, align 8
  %4 = alloca ptr, align 8
  store ptr %0, ptr %3, align 8, !tbaa !42
  store ptr %1, ptr %4, align 8, !tbaa !47
  %5 = load ptr, ptr %3, align 8
  call void @_ZN3gmx8internal14IExceptionInfoC2Ev(ptr noundef nonnull align 8 dereferenceable(8) %5) #19
  store ptr getelementptr inbounds inrange(-16, 16) ({ [4 x ptr] }, ptr @_ZTVN3gmx13ExceptionInfoINS_22ExceptionInfoLocation_ENS_13ThrowLocationEEE, i32 0, i32 0, i32 2), ptr %5, align 8, !tbaa !10
  %6 = getelementptr inbounds nuw %"class.gmx::ExceptionInfo", ptr %5, i32 0, i32 1
  %7 = load ptr, ptr %4, align 8, !tbaa !47
  call void @llvm.memcpy.p0.p0.i64(ptr align 8 %6, ptr align 8 %7, i64 24, i1 false), !tbaa.struct !54
  ret void
}

; Function Attrs: mustprogress nounwind uwtable
define linkonce_odr void @_ZN3gmx13ThrowLocationC2EPKcS2_i(ptr noundef nonnull align 8 dereferenceable(20) %0, ptr noundef %1, ptr noundef %2, i32 noundef %3) unnamed_addr #1 comdat align 2 {
  %5 = alloca ptr, align 8
  %6 = alloca ptr, align 8
  %7 = alloca ptr, align 8
  %8 = alloca i32, align 4
  store ptr %0, ptr %5, align 8, !tbaa !47
  store ptr %1, ptr %6, align 8, !tbaa !46
  store ptr %2, ptr %7, align 8, !tbaa !46
  store i32 %3, ptr %8, align 4, !tbaa !49
  %9 = load ptr, ptr %5, align 8
  %10 = getelementptr inbounds nuw %"struct.gmx::ThrowLocation", ptr %9, i32 0, i32 0
  %11 = load ptr, ptr %6, align 8, !tbaa !46
  store ptr %11, ptr %10, align 8, !tbaa !50
  %12 = getelementptr inbounds nuw %"struct.gmx::ThrowLocation", ptr %9, i32 0, i32 1
  %13 = load ptr, ptr %7, align 8, !tbaa !46
  store ptr %13, ptr %12, align 8, !tbaa !52
  %14 = getelementptr inbounds nuw %"struct.gmx::ThrowLocation", ptr %9, i32 0, i32 2
  %15 = load i32, ptr %8, align 4, !tbaa !49
  store i32 %15, ptr %14, align 8, !tbaa !53
  ret void
}

; Function Attrs: mustprogress uwtable
define linkonce_odr void @_ZN3gmx17InvalidInputErrorC2ERKNS_20ExceptionInitializerE(ptr noundef nonnull align 8 dereferenceable(24) %0, ptr noundef nonnull align 8 dereferenceable(56) %1) unnamed_addr #0 comdat align 2 {
  %3 = alloca ptr, align 8
  %4 = alloca ptr, align 8
  store ptr %0, ptr %3, align 8, !tbaa !58
  store ptr %1, ptr %4, align 8, !tbaa !44
  %5 = load ptr, ptr %3, align 8
  %6 = load ptr, ptr %4, align 8, !tbaa !44
  call void @_ZN3gmx14UserInputErrorC2ERKNS_20ExceptionInitializerE(ptr noundef nonnull align 8 dereferenceable(24) %5, ptr noundef nonnull align 8 dereferenceable(56) %6)
  store ptr getelementptr inbounds inrange(-16, 32) ({ [6 x ptr] }, ptr @_ZTVN3gmx17InvalidInputErrorE, i32 0, i32 0, i32 2), ptr %5, align 8, !tbaa !10
  ret void
}

; Function Attrs: mustprogress uwtable
define linkonce_odr noundef zeroext i1 @_ZNK3gmx21AbstractOptionStorage7hasFlagENS_10OptionFlagE(ptr noundef nonnull align 8 dereferenceable(98) %0, i64 noundef %1) #0 comdat align 2 {
  %3 = alloca ptr, align 8
  %4 = alloca i64, align 8
  store ptr %0, ptr %3, align 8, !tbaa !3
  store i64 %1, ptr %4, align 8, !tbaa !38
  %5 = load ptr, ptr %3, align 8
  %6 = getelementptr inbounds nuw %"class.gmx::AbstractOptionStorage", ptr %5, i32 0, i32 3
  %7 = load i64, ptr %4, align 8, !tbaa !38
  %8 = call noundef zeroext i1 @_ZNK3gmx13FlagsTemplateINS_10OptionFlagEE4testES1_(ptr noundef nonnull align 8 dereferenceable(8) %6, i64 noundef %7)
  ret i1 %8
}

; Function Attrs: mustprogress uwtable
define linkonce_odr noundef zeroext i1 @_ZNK3gmx21AbstractOptionStorage5isSetEv(ptr noundef nonnull align 8 dereferenceable(98) %0) #0 comdat align 2 {
  %2 = alloca ptr, align 8
  store ptr %0, ptr %2, align 8, !tbaa !3
  %3 = load ptr, ptr %2, align 8
  %4 = call noundef zeroext i1 @_ZNK3gmx21AbstractOptionStorage7hasFlagENS_10OptionFlagE(ptr noundef nonnull align 8 dereferenceable(98) %3, i64 noundef 1)
  ret i1 %4
}

; Function Attrs: mustprogress uwtable
define linkonce_odr noundef zeroext i1 @_ZNK3gmx21AbstractOptionStorage10isRequiredEv(ptr noundef nonnull align 8 dereferenceable(98) %0) #0 comdat align 2 {
  %2 = alloca ptr, align 8
  store ptr %0, ptr %2, align 8, !tbaa !3
  %3 = load ptr, ptr %2, align 8
  %4 = call noundef zeroext i1 @_ZNK3gmx21AbstractOptionStorage7hasFlagENS_10OptionFlagE(ptr noundef nonnull align 8 dereferenceable(98) %3, i64 noundef 16)
  ret i1 %4
}

; Function Attrs: inlinehint mustprogress uwtable
define internal void @"_ZZN3gmx21AbstractOptionStorage6finishEvENK3$_0clEv"(ptr noundef nonnull align 1 dereferenceable(1) %0) #2 align 2 {
  %2 = alloca ptr, align 8
  store ptr %0, ptr %2, align 8, !tbaa !57
  call void @_ZN3gmx8internal13assertHandlerEPKcS2_S2_S2_i(ptr noundef @.str.7, ptr noundef @.str.8, ptr noundef @"__PRETTY_FUNCTION__._ZZN3gmx21AbstractOptionStorage6finishEvENK3$_0clEv", ptr noundef @.str.1, i32 noundef 165) #20
  unreachable
}

; Function Attrs: mustprogress uwtable
define void @_ZN3gmx21AbstractOptionStorage6finishEv(ptr noundef nonnull align 8 dereferenceable(98) %0) #0 align 2 personality ptr @__gxx_personality_v0 {
  %2 = alloca ptr, align 8
  %3 = alloca %class.anon.9, align 1
  %4 = alloca %"class.gmx::InvalidInputError", align 8
  %5 = alloca %"class.gmx::ExceptionInitializer", align 8
  %6 = alloca ptr, align 8
  %7 = alloca i32, align 4
  %8 = alloca %"class.gmx::ExceptionInfo", align 8
  %9 = alloca %"struct.gmx::ThrowLocation", align 8
  %10 = alloca i1, align 1
  store ptr %0, ptr %2, align 8, !tbaa !3
  %11 = load ptr, ptr %2, align 8
  %12 = getelementptr inbounds nuw %"class.gmx::AbstractOptionStorage", ptr %11, i32 0, i32 7
  %13 = load i8, ptr %12, align 8, !tbaa !28, !range !55, !noundef !56
  %14 = trunc i8 %13 to i1
  call void @llvm.lifetime.start.p0(i64 1, ptr %3) #19
  br i1 %14, label %16, label %15

15:                                               ; preds = %1
  br label %17

16:                                               ; preds = %1
  call void @"_ZZN3gmx21AbstractOptionStorage6finishEvENK3$_0clEv"(ptr noundef nonnull align 1 dereferenceable(1) %3)
  br label %17

17:                                               ; preds = %16, %15
  call void @llvm.lifetime.end.p0(i64 1, ptr %3) #19
  %18 = load ptr, ptr %11, align 8, !tbaa !10
  %19 = getelementptr inbounds ptr, ptr %18, i64 12
  %20 = load ptr, ptr %19, align 8
  call void %20(ptr noundef nonnull align 8 dereferenceable(98) %11)
  %21 = call noundef zeroext i1 @_ZNK3gmx21AbstractOptionStorage10isRequiredEv(ptr noundef nonnull align 8 dereferenceable(98) %11)
  br i1 %21, label %22, label %55

22:                                               ; preds = %17
  %23 = call noundef zeroext i1 @_ZNK3gmx21AbstractOptionStorage5isSetEv(ptr noundef nonnull align 8 dereferenceable(98) %11)
  br i1 %23, label %55, label %24

24:                                               ; preds = %22
  %25 = call noundef zeroext i1 @_ZNK3gmx21AbstractOptionStorage7hasFlagENS_10OptionFlagE(ptr noundef nonnull align 8 dereferenceable(98) %11, i64 noundef 4)
  br i1 %25, label %55, label %26

26:                                               ; preds = %24
  store i1 true, ptr %10, align 1
  %27 = call ptr @__cxa_allocate_exception(i64 24) #19
  call void @llvm.lifetime.start.p0(i64 56, ptr %5) #19
  invoke void @_ZN3gmx20ExceptionInitializerC2EPKc(ptr noundef nonnull align 8 dereferenceable(56) %5, ptr noundef @.str.3)
          to label %28 unwind label %33

28:                                               ; preds = %26
  invoke void @_ZN3gmx17InvalidInputErrorC2ERKNS_20ExceptionInitializerE(ptr noundef nonnull align 8 dereferenceable(24) %4, ptr noundef nonnull align 8 dereferenceable(56) %5)
          to label %29 unwind label %37

29:                                               ; preds = %28
  call void @llvm.lifetime.start.p0(i64 32, ptr %8) #19
  call void @llvm.lifetime.start.p0(i64 24, ptr %9) #19
  invoke void @_ZN3gmx13ThrowLocationC2EPKcS2_i(ptr noundef nonnull align 8 dereferenceable(20) %9, ptr noundef @__PRETTY_FUNCTION__._ZN3gmx21AbstractOptionStorage6finishEv, ptr noundef @.str.1, i32 noundef 169)
          to label %30 unwind label %41

30:                                               ; preds = %29
  invoke void @_ZN3gmx13ExceptionInfoINS_22ExceptionInfoLocation_ENS_13ThrowLocationEEC2ERKS2_(ptr noundef nonnull align 8 dereferenceable(32) %8, ptr noundef nonnull align 8 dereferenceable(20) %9)
          to label %31 unwind label %41

31:                                               ; preds = %30
  invoke void @_ZN3gmxlsINS_17InvalidInputErrorENS_22ExceptionInfoLocation_ENS_13ThrowLocationEEENSt9enable_ifIXsr3stdE12is_base_of_vINS_16GromacsExceptionET_EES6_E4typeES6_RKNS_13ExceptionInfoIT0_T1_EE(ptr dead_on_unwind writable sret(%"class.gmx::InvalidInputError") align 8 %27, ptr noundef %4, ptr noundef nonnull align 8 dereferenceable(32) %8)
          to label %32 unwind label %45

32:                                               ; preds = %31
  store i1 false, ptr %10, align 1
  invoke void @__cxa_throw(ptr %27, ptr @_ZTIN3gmx17InvalidInputErrorE, ptr @_ZN3gmx16GromacsExceptionD2Ev) #20
          to label %61 unwind label %45

33:                                               ; preds = %26
  %34 = landingpad { ptr, i32 }
          cleanup
  %35 = extractvalue { ptr, i32 } %34, 0
  store ptr %35, ptr %6, align 8
  %36 = extractvalue { ptr, i32 } %34, 1
  store i32 %36, ptr %7, align 4
  br label %51

37:                                               ; preds = %28
  %38 = landingpad { ptr, i32 }
          cleanup
  %39 = extractvalue { ptr, i32 } %38, 0
  store ptr %39, ptr %6, align 8
  %40 = extractvalue { ptr, i32 } %38, 1
  store i32 %40, ptr %7, align 4
  br label %50

41:                                               ; preds = %30, %29
  %42 = landingpad { ptr, i32 }
          cleanup
  %43 = extractvalue { ptr, i32 } %42, 0
  store ptr %43, ptr %6, align 8
  %44 = extractvalue { ptr, i32 } %42, 1
  store i32 %44, ptr %7, align 4
  br label %49

45:                                               ; preds = %32, %31
  %46 = landingpad { ptr, i32 }
          cleanup
  %47 = extractvalue { ptr, i32 } %46, 0
  store ptr %47, ptr %6, align 8
  %48 = extractvalue { ptr, i32 } %46, 1
  store i32 %48, ptr %7, align 4
  call void @_ZN3gmx8internal14IExceptionInfoD2Ev(ptr noundef nonnull align 8 dereferenceable(32) %8) #19
  br label %49

49:                                               ; preds = %45, %41
  call void @llvm.lifetime.end.p0(i64 24, ptr %9) #19
  call void @llvm.lifetime.end.p0(i64 32, ptr %8) #19
  call void @_ZN3gmx16GromacsExceptionD2Ev(ptr noundef nonnull align 8 dereferenceable(24) %4) #19
  br label %50

50:                                               ; preds = %49, %37
  call void @_ZN3gmx20ExceptionInitializerD2Ev(ptr noundef nonnull align 8 dereferenceable(56) %5) #19
  br label %51

51:                                               ; preds = %50, %33
  call void @llvm.lifetime.end.p0(i64 56, ptr %5) #19
  %52 = load i1, ptr %10, align 1
  br i1 %52, label %53, label %54

53:                                               ; preds = %51
  call void @__cxa_free_exception(ptr %27) #19
  br label %54

54:                                               ; preds = %53, %51
  br label %56

55:                                               ; preds = %24, %22, %17
  ret void

56:                                               ; preds = %54
  %57 = load ptr, ptr %6, align 8
  %58 = load i32, ptr %7, align 4
  %59 = insertvalue { ptr, i32 } poison, ptr %57, 0
  %60 = insertvalue { ptr, i32 } %59, i32 %58, 1
  resume { ptr, i32 } %60

61:                                               ; preds = %32
  unreachable
}