; Function Attrs: mustprogress uwtable
define void @_ZN3gmx21AbstractOptionStorage6finishEv(ptr noundef nonnull align 8 dereferenceable(98) %0) local_unnamed_addr #0 align 2 personality ptr @__gxx_personality_v0 {
  %2 = alloca %"class.gmx::InvalidInputError", align 8
  %3 = alloca %"class.gmx::ExceptionInitializer", align 8
  %4 = alloca %"class.gmx::ExceptionInfo", align 8
  %5 = getelementptr inbounds nuw i8, ptr %0, i64 96
  %6 = load i8, ptr %5, align 8, !tbaa !28, !range !58, !noundef !59
  %7 = trunc nuw i8 %6 to i1
  br i1 %7, label %8, label %9

8:                                                ; preds = %1
  tail call void @_ZN3gmx8internal13assertHandlerEPKcS2_S2_S2_i(ptr noundef nonnull @.str.7, ptr noundef nonnull @.str.8, ptr noundef nonnull @"__PRETTY_FUNCTION__._ZZN3gmx21AbstractOptionStorage6finishEvENK3$_0clEv", ptr noundef nonnull @.str.1, i32 noundef 165) #30
  unreachable

9:                                                ; preds = %1
  %10 = load ptr, ptr %0, align 8, !tbaa !3
  %11 = getelementptr inbounds nuw i8, ptr %10, i64 96
  %12 = load ptr, ptr %11, align 8
  tail call void %12(ptr noundef nonnull align 8 dereferenceable(98) %0)
  %13 = getelementptr inbounds nuw i8, ptr %0, i64 72
  %14 = load i64, ptr %13, align 8, !tbaa !15
  %15 = and i64 %14, 21
  %or.cond19.not = icmp eq i64 %15, 16
  br i1 %or.cond19.not, label %16, label %27

16:                                               ; preds = %9
  %17 = tail call ptr @__cxa_allocate_exception(i64 24) #29
  call void @llvm.lifetime.start.p0(i64 56, ptr nonnull %3) #29
  invoke void @_ZN3gmx20ExceptionInitializerC2EPKc(ptr noundef nonnull align 8 dereferenceable(56) %3, ptr noundef nonnull @.str.3)
          to label %18 unwind label %.thread

18:                                               ; preds = %16
  invoke void @_ZN3gmx16GromacsExceptionC2ERKNS_20ExceptionInitializerE(ptr noundef nonnull align 8 dereferenceable(24) %2, ptr noundef nonnull align 8 dereferenceable(56) %3)
          to label %19 unwind label %.thread14

19:                                               ; preds = %18
  store ptr getelementptr inbounds nuw inrange(-16, 32) (i8, ptr @_ZTVN3gmx17InvalidInputErrorE, i64 16), ptr %2, align 8, !tbaa !3
  call void @llvm.lifetime.start.p0(i64 32, ptr nonnull %4) #29
  store ptr getelementptr inbounds nuw inrange(-16, 16) (i8, ptr @_ZTVN3gmx13ExceptionInfoINS_22ExceptionInfoLocation_ENS_13ThrowLocationEEE, i64 16), ptr %4, align 8, !tbaa !3
  %20 = getelementptr inbounds nuw i8, ptr %4, i64 8
  store ptr @__PRETTY_FUNCTION__._ZN3gmx21AbstractOptionStorage6finishEv, ptr %20, align 8, !tbaa !30
  %.sroa.4.0..sroa_idx = getelementptr inbounds nuw i8, ptr %4, i64 16
  store ptr @.str.1, ptr %.sroa.4.0..sroa_idx, align 8, !tbaa !30
  %.sroa.5.0..sroa_idx = getelementptr inbounds nuw i8, ptr %4, i64 24
  store i32 169, ptr %.sroa.5.0..sroa_idx, align 8, !tbaa !31
  invoke void @_ZN3gmxlsINS_17InvalidInputErrorENS_22ExceptionInfoLocation_ENS_13ThrowLocationEEENSt9enable_ifIXsr3stdE12is_base_of_vINS_16GromacsExceptionET_EES6_E4typeES6_RKNS_13ExceptionInfoIT0_T1_EE(ptr dead_on_unwind writable sret(%"class.gmx::InvalidInputError") align 8 %17, ptr noundef nonnull %2, ptr noundef nonnull align 8 dereferenceable(32) %4)
          to label %21 unwind label %24

21:                                               ; preds = %19
  invoke void @__cxa_throw(ptr %17, ptr nonnull @_ZTIN3gmx17InvalidInputErrorE, ptr nonnull @_ZN3gmx16GromacsExceptionD2Ev) #30
          to label %29 unwind label %24

.thread:                                          ; preds = %16
  %22 = landingpad { ptr, i32 }
          cleanup
  br label %.sink.split

.thread14:                                        ; preds = %18
  %23 = landingpad { ptr, i32 }
          cleanup
  call void @_ZN3gmx20ExceptionInitializerD2Ev(ptr noundef nonnull align 8 dereferenceable(56) %3) #29
  br label %.sink.split

24:                                               ; preds = %19, %21
  %.0 = phi i1 [ false, %21 ], [ true, %19 ]
  %25 = landingpad { ptr, i32 }
          cleanup
  call void @_ZN3gmx8internal14IExceptionInfoD2Ev(ptr noundef nonnull align 8 dereferenceable(32) %4) #29
  call void @llvm.lifetime.end.p0(i64 32, ptr nonnull %4) #29
  call void @_ZN3gmx16GromacsExceptionD2Ev(ptr noundef nonnull align 8 dereferenceable(24) %2) #29
  call void @_ZN3gmx20ExceptionInitializerD2Ev(ptr noundef nonnull align 8 dereferenceable(56) %3) #29
  call void @llvm.lifetime.end.p0(i64 56, ptr nonnull %3) #29
  br i1 %.0, label %26, label %28

.sink.split:                                      ; preds = %.thread, %.thread14
  %.pn.pn13.ph = phi { ptr, i32 } [ %23, %.thread14 ], [ %22, %.thread ]
  call void @llvm.lifetime.end.p0(i64 56, ptr nonnull %3) #29
  br label %26

26:                                               ; preds = %.sink.split, %24
  %.pn.pn13 = phi { ptr, i32 } [ %25, %24 ], [ %.pn.pn13.ph, %.sink.split ]
  call void @__cxa_free_exception(ptr %17) #29
  br label %28

27:                                               ; preds = %9
  ret void

28:                                               ; preds = %24, %26
  %.pn.pn12 = phi { ptr, i32 } [ %25, %24 ], [ %.pn.pn13, %26 ]
  resume { ptr, i32 } %.pn.pn12

29:                                               ; preds = %21
  unreachable
}